target datalayout = "e-m:e-p270:32:32-p271:32:32-p272:64:64-i64:64-i128:128-f80:128-n8:16:32:64-S128"
target triple = "x86_64-unknown-linux-gnu"

%"struct.msdfgen::Vector2" = type { double, double }
%"class.msdfgen::SignedDistance" = type { double, double }

; Function Attrs: mustprogress nounwind uwtable
define linkonce_odr dso_local void @_ZN7msdfgen7Vector2C2Edd(ptr noundef nonnull align 8 dereferenceable(16) %this, double noundef %x, double noundef %y) unnamed_addr #4 comdat align 2 {
entry:
  %this.addr = alloca ptr, align 8
  %x.addr = alloca double, align 8
  %y.addr = alloca double, align 8
  store ptr %this, ptr %this.addr, align 8
  store double %x, ptr %x.addr, align 8
  store double %y, ptr %y.addr, align 8
  %this1 = load ptr, ptr %this.addr, align 8
  %x2 = getelementptr inbounds %"struct.msdfgen::Vector2", ptr %this1, i32 0, i32 0
  %0 = load double, ptr %x.addr, align 8
  store double %0, ptr %x2, align 8
  %y3 = getelementptr inbounds %"struct.msdfgen::Vector2", ptr %this1, i32 0, i32 1
  %1 = load double, ptr %y.addr, align 8
  store double %1, ptr %y3, align 8
  ret void
}

; Function Attrs: mustprogress nounwind uwtable
define linkonce_odr dso_local noundef double @_ZNK7msdfgen7Vector26lengthEv(ptr noundef nonnull align 8 dereferenceable(16) %this) #4 comdat align 2 {
entry:
  %this.addr = alloca ptr, align 8
  store ptr %this, ptr %this.addr, align 8
  %this1 = load ptr, ptr %this.addr, align 8
  %x = getelementptr inbounds %"struct.msdfgen::Vector2", ptr %this1, i32 0, i32 0
  %0 = load double, ptr %x, align 8
  %x2 = getelementptr inbounds %"struct.msdfgen::Vector2", ptr %this1, i32 0, i32 0
  %1 = load double, ptr %x2, align 8
  %y = getelementptr inbounds %"struct.msdfgen::Vector2", ptr %this1, i32 0, i32 1
  %2 = load double, ptr %y, align 8
  %y3 = getelementptr inbounds %"struct.msdfgen::Vector2", ptr %this1, i32 0, i32 1
  %3 = load double, ptr %y3, align 8
  %mul4 = fmul double %2, %3
  %4 = call double @llvm.fmuladd.f64(double %0, double %1, double %mul4)
  %call = call double @sqrt(double noundef %4) #11
  ret double %call
}

; Function Attrs: mustprogress nounwind uwtable
define linkonce_odr dso_local noundef double @_ZN7msdfgen12crossProductENS_7Vector2ES0_(double %a.coerce0, double %a.coerce1, double %b.coerce0, double %b.coerce1) #4 comdat {
entry:
  %a = alloca %"struct.msdfgen::Vector2", align 8
  %b = alloca %"struct.msdfgen::Vector2", align 8
  %0 = getelementptr inbounds { double, double }, ptr %a, i32 0, i32 0
  store double %a.coerce0, ptr %0, align 8
  %1 = getelementptr inbounds { double, double }, ptr %a, i32 0, i32 1
  store double %a.coerce1, ptr %1, align 8
  %2 = getelementptr inbounds { double, double }, ptr %b, i32 0, i32 0
  store double %b.coerce0, ptr %2, align 8
  %3 = getelementptr inbounds { double, double }, ptr %b, i32 0, i32 1
  store double %b.coerce1, ptr %3, align 8
  %x = getelementptr inbounds %"struct.msdfgen::Vector2", ptr %a, i32 0, i32 0
  %4 = load double, ptr %x, align 8
  %y = getelementptr inbounds %"struct.msdfgen::Vector2", ptr %b, i32 0, i32 1
  %5 = load double, ptr %y, align 8
  %y1 = getelementptr inbounds %"struct.msdfgen::Vector2", ptr %a, i32 0, i32 1
  %6 = load double, ptr %y1, align 8
  %x2 = getelementptr inbounds %"struct.msdfgen::Vector2", ptr %b, i32 0, i32 0
  %7 = load double, ptr %x2, align 8
  %mul3 = fmul double %6, %7
  %neg = fneg double %mul3
  %8 = call double @llvm.fmuladd.f64(double %4, double %5, double %neg)
  ret double %8
}

; Function Attrs: mustprogress nounwind uwtable
define linkonce_odr dso_local noundef double @_ZN7msdfgen10dotProductENS_7Vector2ES0_(double %a.coerce0, double %a.coerce1, double %b.coerce0, double %b.coerce1) #4 comdat {
entry:
  %a = alloca %"struct.msdfgen::Vector2", align 8
  %b = alloca %"struct.msdfgen::Vector2", align 8
  %0 = getelementptr inbounds { double, double }, ptr %a, i32 0, i32 0
  store double %a.coerce0, ptr %0, align 8
  %1 = getelementptr inbounds { double, double }, ptr %a, i32 0, i32 1
  store double %a.coerce1, ptr %1, align 8
  %2 = getelementptr inbounds { double, double }, ptr %b, i32 0, i32 0
  store double %b.coerce0, ptr %2, align 8
  %3 = getelementptr inbounds { double, double }, ptr %b, i32 0, i32 1
  store double %b.coerce1, ptr %3, align 8
  %x = getelementptr inbounds %"struct.msdfgen::Vector2", ptr %a, i32 0, i32 0
  %4 = load double, ptr %x, align 8
  %x1 = getelementptr inbounds %"struct.msdfgen::Vector2", ptr %b, i32 0, i32 0
  %5 = load double, ptr %x1, align 8
  %y = getelementptr inbounds %"struct.msdfgen::Vector2", ptr %a, i32 0, i32 1
  %6 = load double, ptr %y, align 8
  %y2 = getelementptr inbounds %"struct.msdfgen::Vector2", ptr %b, i32 0, i32 1
  %7 = load double, ptr %y2, align 8
  %mul3 = fmul double %6, %7
  %8 = call double @llvm.fmuladd.f64(double %4, double %5, double %mul3)
  ret double %8
}

; Function Attrs: mustprogress uwtable
define linkonce_odr dso_local { double, double } @_ZN7msdfgenmiENS_7Vector2ES0_(double %a.coerce0, double %a.coerce1, double %b.coerce0, double %b.coerce1) #0 comdat {
entry:
  %retval = alloca %"struct.msdfgen::Vector2", align 8
  %a = alloca %"struct.msdfgen::Vector2", align 8
  %b = alloca %"struct.msdfgen::Vector2", align 8
  %0 = getelementptr inbounds { double, double }, ptr %a, i32 0, i32 0
  store double %a.coerce0, ptr %0, align 8
  %1 = getelementptr inbounds { double, double }, ptr %a, i32 0, i32 1
  store double %a.coerce1, ptr %1, align 8
  %2 = getelementptr inbounds { double, double }, ptr %b, i32 0, i32 0
  store double %b.coerce0, ptr %2, align 8
  %3 = getelementptr inbounds { double, double }, ptr %b, i32 0, i32 1
  store double %b.coerce1, ptr %3, align 8
  %x = getelementptr inbounds %"struct.msdfgen::Vector2", ptr %a, i32 0, i32 0
  %4 = load double, ptr %x, align 8
  %x1 = getelementptr inbounds %"struct.msdfgen::Vector2", ptr %b, i32 0, i32 0
  %5 = load double, ptr %x1, align 8
  %sub = fsub double %4, %5
  %y = getelementptr inbounds %"struct.msdfgen::Vector2", ptr %a, i32 0, i32 1
  %6 = load double, ptr %y, align 8
  %y2 = getelementptr inbounds %"struct.msdfgen::Vector2", ptr %b, i32 0, i32 1
  %7 = load double, ptr %y2, align 8
  %sub3 = fsub double %6, %7
  call void @_ZN7msdfgen7Vector2C2Edd(ptr noundef nonnull align 8 dereferenceable(16) %retval, double noundef %sub, double noundef %sub3)
  %8 = load { double, double }, ptr %retval, align 8
  ret { double, double } %8
}

; Function Attrs: mustprogress uwtable
define linkonce_odr dso_local { double, double } @_ZNK7msdfgen7Vector29normalizeEb(ptr noundef nonnull align 8 dereferenceable(16) %this, i1 noundef zeroext %allowZero) #0 comdat align 2 {
entry:
  %retval = alloca %"struct.msdfgen::Vector2", align 8
  %this.addr = alloca ptr, align 8
  %allowZero.addr = alloca i8, align 1
  %len = alloca double, align 8
  store ptr %this, ptr %this.addr, align 8
  %frombool = zext i1 %allowZero to i8
  store i8 %frombool, ptr %allowZero.addr, align 1
  %this1 = load ptr, ptr %this.addr, align 8
  %call = call noundef double @_ZNK7msdfgen7Vector26lengthEv(ptr noundef nonnull align 8 dereferenceable(16) %this1)
  store double %call, ptr %len, align 8
  %0 = load double, ptr %len, align 8
  %tobool = fcmp une double %0, 0.000000e+00
  br i1 %tobool, label %if.then, label %if.end

if.then:                                          ; preds = %entry
  %x = getelementptr inbounds %"struct.msdfgen::Vector2", ptr %this1, i32 0, i32 0
  %1 = load double, ptr %x, align 8
  %2 = load double, ptr %len, align 8
  %div = fdiv double %1, %2
  %y = getelementptr inbounds %"struct.msdfgen::Vector2", ptr %this1, i32 0, i32 1
  %3 = load double, ptr %y, align 8
  %4 = load double, ptr %len, align 8
  %div2 = fdiv double %3, %4
  call void @_ZN7msdfgen7Vector2C2Edd(ptr noundef nonnull align 8 dereferenceable(16) %retval, double noundef %div, double noundef %div2)
  br label %return

if.end:                                           ; preds = %entry
  %5 = load i8, ptr %allowZero.addr, align 1
  %tobool3 = trunc i8 %5 to i1
  %lnot = xor i1 %tobool3, true
  %conv = uitofp i1 %lnot to double
  call void @_ZN7msdfgen7Vector2C2Edd(ptr noundef nonnull align 8 dereferenceable(16) %retval, double noundef 0.000000e+00, double noundef %conv)
  br label %return

return:                                           ; preds = %if.end, %if.then
  %6 = load { double, double }, ptr %retval, align 8
  ret { double, double } %6
}

; Function Attrs: mustprogress uwtable
define dso_local void @_ZNK7msdfgen11EdgeSegment24distanceToPseudoDistanceERNS_14SignedDistanceENS_7Vector2Ed(ptr noundef nonnull align 8 dereferenceable(12) %this, ptr noundef nonnull align 8 dereferenceable(16) %distance, double %origin.coerce0, double %origin.coerce1, double noundef %param) unnamed_addr #0 align 2 {
entry:
  %origin = alloca %"struct.msdfgen::Vector2", align 8
  %this.addr = alloca ptr, align 8
  %distance.addr = alloca ptr, align 8
  %param.addr = alloca double, align 8
  %dir = alloca %"struct.msdfgen::Vector2", align 8
  %ref.tmp = alloca %"struct.msdfgen::Vector2", align 8
  %aq = alloca %"struct.msdfgen::Vector2", align 8
  %agg.tmp = alloca %"struct.msdfgen::Vector2", align 8
  %agg.tmp3 = alloca %"struct.msdfgen::Vector2", align 8
  %ts = alloca double, align 8
  %agg.tmp8 = alloca %"struct.msdfgen::Vector2", align 8
  %agg.tmp9 = alloca %"struct.msdfgen::Vector2", align 8
  %pseudoDistance = alloca double, align 8
  %agg.tmp13 = alloca %"struct.msdfgen::Vector2", align 8
  %agg.tmp14 = alloca %"struct.msdfgen::Vector2", align 8
  %dir23 = alloca %"struct.msdfgen::Vector2", align 8
  %ref.tmp24 = alloca %"struct.msdfgen::Vector2", align 8
  %bq = alloca %"struct.msdfgen::Vector2", align 8
  %agg.tmp29 = alloca %"struct.msdfgen::Vector2", align 8
  %agg.tmp30 = alloca %"struct.msdfgen::Vector2", align 8
  %ts35 = alloca double, align 8
  %agg.tmp36 = alloca %"struct.msdfgen::Vector2", align 8
  %agg.tmp37 = alloca %"struct.msdfgen::Vector2", align 8
  %pseudoDistance41 = alloca double, align 8
  %agg.tmp42 = alloca %"struct.msdfgen::Vector2", align 8
  %agg.tmp43 = alloca %"struct.msdfgen::Vector2", align 8
  %0 = getelementptr inbounds { double, double }, ptr %origin, i32 0, i32 0
  store double %origin.coerce0, ptr %0, align 8
  %1 = getelementptr inbounds { double, double }, ptr %origin, i32 0, i32 1
  store double %origin.coerce1, ptr %1, align 8
  store ptr %this, ptr %this.addr, align 8
  store ptr %distance, ptr %distance.addr, align 8
  store double %param, ptr %param.addr, align 8
  %this1 = load ptr, ptr %this.addr, align 8
  %2 = load double, ptr %param.addr, align 8
  %cmp = fcmp olt double %2, 0.000000e+00
  br i1 %cmp, label %if.then, label %if.else

if.then:                                          ; preds = %entry
  %vtable = load ptr, ptr %this1, align 8
  %vfn = getelementptr inbounds ptr, ptr %vtable, i64 6
  %3 = load ptr, ptr %vfn, align 8
  %call = call { double, double } %3(ptr noundef nonnull align 8 dereferenceable(12) %this1, double noundef 0.000000e+00)
  %4 = getelementptr inbounds { double, double }, ptr %ref.tmp, i32 0, i32 0
  %5 = extractvalue { double, double } %call, 0
  store double %5, ptr %4, align 8
  %6 = getelementptr inbounds { double, double }, ptr %ref.tmp, i32 0, i32 1
  %7 = extractvalue { double, double } %call, 1
  store double %7, ptr %6, align 8
  %call2 = call { double, double } @_ZNK7msdfgen7Vector29normalizeEb(ptr noundef nonnull align 8 dereferenceable(16) %ref.tmp, i1 noundef zeroext false)
  %8 = getelementptr inbounds { double, double }, ptr %dir, i32 0, i32 0
  %9 = extractvalue { double, double } %call2, 0
  store double %9, ptr %8, align 8
  %10 = getelementptr inbounds { double, double }, ptr %dir, i32 0, i32 1
  %11 = extractvalue { double, double } %call2, 1
  store double %11, ptr %10, align 8
  call void @llvm.memcpy.p0.p0.i64(ptr align 8 %agg.tmp, ptr align 8 %origin, i64 16, i1 false)
  %vtable4 = load ptr, ptr %this1, align 8
  %vfn5 = getelementptr inbounds ptr, ptr %vtable4, i64 5
  %12 = load ptr, ptr %vfn5, align 8
  %call6 = call { double, double } %12(ptr noundef nonnull align 8 dereferenceable(12) %this1, double noundef 0.000000e+00)
  %13 = getelementptr inbounds { double, double }, ptr %agg.tmp3, i32 0, i32 0
  %14 = extractvalue { double, double } %call6, 0
  store double %14, ptr %13, align 8
  %15 = getelementptr inbounds { double, double }, ptr %agg.tmp3, i32 0, i32 1
  %16 = extractvalue { double, double } %call6, 1
  store double %16, ptr %15, align 8
  %17 = getelementptr inbounds { double, double }, ptr %agg.tmp, i32 0, i32 0
  %18 = load double, ptr %17, align 8
  %19 = getelementptr inbounds { double, double }, ptr %agg.tmp, i32 0, i32 1
  %20 = load double, ptr %19, align 8
  %21 = getelementptr inbounds { double, double }, ptr %agg.tmp3, i32 0, i32 0
  %22 = load double, ptr %21, align 8
  %23 = getelementptr inbounds { double, double }, ptr %agg.tmp3, i32 0, i32 1
  %24 = load double, ptr %23, align 8
  %call7 = call { double, double } @_ZN7msdfgenmiENS_7Vector2ES0_(double %18, double %20, double %22, double %24)
  %25 = getelementptr inbounds { double, double }, ptr %aq, i32 0, i32 0
  %26 = extractvalue { double, double } %call7, 0
  store double %26, ptr %25, align 8
  %27 = getelementptr inbounds { double, double }, ptr %aq, i32 0, i32 1
  %28 = extractvalue { double, double } %call7, 1
  store double %28, ptr %27, align 8
  call void @llvm.memcpy.p0.p0.i64(ptr align 8 %agg.tmp8, ptr align 8 %aq, i64 16, i1 false)
  call void @llvm.memcpy.p0.p0.i64(ptr align 8 %agg.tmp9, ptr align 8 %dir, i64 16, i1 false)
  %29 = getelementptr inbounds { double, double }, ptr %agg.tmp8, i32 0, i32 0
  %30 = load double, ptr %29, align 8
  %31 = getelementptr inbounds { double, double }, ptr %agg.tmp8, i32 0, i32 1
  %32 = load double, ptr %31, align 8
  %33 = getelementptr inbounds { double, double }, ptr %agg.tmp9, i32 0, i32 0
  %34 = load double, ptr %33, align 8
  %35 = getelementptr inbounds { double, double }, ptr %agg.tmp9, i32 0, i32 1
  %36 = load double, ptr %35, align 8
  %call10 = call noundef double @_ZN7msdfgen10dotProductENS_7Vector2ES0_(double %30, double %32, double %34, double %36)
  store double %call10, ptr %ts, align 8
  %37 = load double, ptr %ts, align 8
  %cmp11 = fcmp olt double %37, 0.000000e+00
  br i1 %cmp11, label %if.then12, label %if.end20

if.then12:                                        ; preds = %if.then
  call void @llvm.memcpy.p0.p0.i64(ptr align 8 %agg.tmp13, ptr align 8 %aq, i64 16, i1 false)
  call void @llvm.memcpy.p0.p0.i64(ptr align 8 %agg.tmp14, ptr align 8 %dir, i64 16, i1 false)
  %38 = getelementptr inbounds { double, double }, ptr %agg.tmp13, i32 0, i32 0
  %39 = load double, ptr %38, align 8
  %40 = getelementptr inbounds { double, double }, ptr %agg.tmp13, i32 0, i32 1
  %41 = load double, ptr %40, align 8
  %42 = getelementptr inbounds { double, double }, ptr %agg.tmp14, i32 0, i32 0
  %43 = load double, ptr %42, align 8
  %44 = getelementptr inbounds { double, double }, ptr %agg.tmp14, i32 0, i32 1
  %45 = load double, ptr %44, align 8
  %call15 = call noundef double @_ZN7msdfgen12crossProductENS_7Vector2ES0_(double %39, double %41, double %43, double %45)
  store double %call15, ptr %pseudoDistance, align 8
  %46 = load double, ptr %pseudoDistance, align 8
  %47 = call double @llvm.fabs.f64(double %46)
  %48 = load ptr, ptr %distance.addr, align 8
  %distance16 = getelementptr inbounds %"class.msdfgen::SignedDistance", ptr %48, i32 0, i32 0
  %49 = load double, ptr %distance16, align 8
  %50 = call double @llvm.fabs.f64(double %49)
  %cmp17 = fcmp ole double %47, %50
  br i1 %cmp17, label %if.then18, label %if.end

if.then18:                                        ; preds = %if.then12
  %51 = load double, ptr %pseudoDistance, align 8
  %52 = load ptr, ptr %distance.addr, align 8
  %distance19 = getelementptr inbounds %"class.msdfgen::SignedDistance", ptr %52, i32 0, i32 0
  store double %51, ptr %distance19, align 8
  %53 = load ptr, ptr %distance.addr, align 8
  %dot = getelementptr inbounds %"class.msdfgen::SignedDistance", ptr %53, i32 0, i32 1
  store double 0.000000e+00, ptr %dot, align 8
  br label %if.end

if.end:                                           ; preds = %if.then18, %if.then12
  br label %if.end20

if.end20:                                         ; preds = %if.end, %if.then
  br label %if.end53

if.else:                                          ; preds = %entry
  %54 = load double, ptr %param.addr, align 8
  %cmp21 = fcmp ogt double %54, 1.000000e+00
  br i1 %cmp21, label %if.then22, label %if.end52

if.then22:                                        ; preds = %if.else
  %vtable25 = load ptr, ptr %this1, align 8
  %vfn26 = getelementptr inbounds ptr, ptr %vtable25, i64 6
  %55 = load ptr, ptr %vfn26, align 8
  %call27 = call { double, double } %55(ptr noundef nonnull align 8 dereferenceable(12) %this1, double noundef 1.000000e+00)
  %56 = getelementptr inbounds { double, double }, ptr %ref.tmp24, i32 0, i32 0
  %57 = extractvalue { double, double } %call27, 0
  store double %57, ptr %56, align 8
  %58 = getelementptr inbounds { double, double }, ptr %ref.tmp24, i32 0, i32 1
  %59 = extractvalue { double, double } %call27, 1
  store double %59, ptr %58, align 8
  %call28 = call { double, double } @_ZNK7msdfgen7Vector29normalizeEb(ptr noundef nonnull align 8 dereferenceable(16) %ref.tmp24, i1 noundef zeroext false)
  %60 = getelementptr inbounds { double, double }, ptr %dir23, i32 0, i32 0
  %61 = extractvalue { double, double } %call28, 0
  store double %61, ptr %60, align 8
  %62 = getelementptr inbounds { double, double }, ptr %dir23, i32 0, i32 1
  %63 = extractvalue { double, double } %call28, 1
  store double %63, ptr %62, align 8
  call void @llvm.memcpy.p0.p0.i64(ptr align 8 %agg.tmp29, ptr align 8 %origin, i64 16, i1 false)
  %vtable31 = load ptr, ptr %this1, align 8
  %vfn32 = getelementptr inbounds ptr, ptr %vtable31, i64 5
  %64 = load ptr, ptr %vfn32, align 8
  %call33 = call { double, double } %64(ptr noundef nonnull align 8 dereferenceable(12) %this1, double noundef 1.000000e+00)
  %65 = getelementptr inbounds { double, double }, ptr %agg.tmp30, i32 0, i32 0
  %66 = extractvalue { double, double } %call33, 0
  store double %66, ptr %65, align 8
  %67 = getelementptr inbounds { double, double }, ptr %agg.tmp30, i32 0, i32 1
  %68 = extractvalue { double, double } %call33, 1
  store double %68, ptr %67, align 8
  %69 = getelementptr inbounds { double, double }, ptr %agg.tmp29, i32 0, i32 0
  %70 = load double, ptr %69, align 8
  %71 = getelementptr inbounds { double, double }, ptr %agg.tmp29, i32 0, i32 1
  %72 = load double, ptr %71, align 8
  %73 = getelementptr inbounds { double, double }, ptr %agg.tmp30, i32 0, i32 0
  %74 = load double, ptr %73, align 8
  %75 = getelementptr inbounds { double, double }, ptr %agg.tmp30, i32 0, i32 1
  %76 = load double, ptr %75, align 8
  %call34 = call { double, double } @_ZN7msdfgenmiENS_7Vector2ES0_(double %70, double %72, double %74, double %76)
  %77 = getelementptr inbounds { double, double }, ptr %bq, i32 0, i32 0
  %78 = extractvalue { double, double } %call34, 0
  store double %78, ptr %77, align 8
  %79 = getelementptr inbounds { double, double }, ptr %bq, i32 0, i32 1
  %80 = extractvalue { double, double } %call34, 1
  store double %80, ptr %79, align 8
  call void @llvm.memcpy.p0.p0.i64(ptr align 8 %agg.tmp36, ptr align 8 %bq, i64 16, i1 false)
  call void @llvm.memcpy.p0.p0.i64(ptr align 8 %agg.tmp37, ptr align 8 %dir23, i64 16, i1 false)
  %81 = getelementptr inbounds { double, double }, ptr %agg.tmp36, i32 0, i32 0
  %82 = load double, ptr %81, align 8
  %83 = getelementptr inbounds { double, double }, ptr %agg.tmp36, i32 0, i32 1
  %84 = load double, ptr %83, align 8
  %85 = getelementptr inbounds { double, double }, ptr %agg.tmp37, i32 0, i32 0
  %86 = load double, ptr %85, align 8
  %87 = getelementptr inbounds { double, double }, ptr %agg.tmp37, i32 0, i32 1
  %88 = load double, ptr %87, align 8
  %call38 = call noundef double @_ZN7msdfgen10dotProductENS_7Vector2ES0_(double %82, double %84, double %86, double %88)
  store double %call38, ptr %ts35, align 8
  %89 = load double, ptr %ts35, align 8
  %cmp39 = fcmp ogt double %89, 0.000000e+00
  br i1 %cmp39, label %if.then40, label %if.end51

if.then40:                                        ; preds = %if.then22
  call void @llvm.memcpy.p0.p0.i64(ptr align 8 %agg.tmp42, ptr align 8 %bq, i64 16, i1 false)
  call void @llvm.memcpy.p0.p0.i64(ptr align 8 %agg.tmp43, ptr align 8 %dir23, i64 16, i1 false)
  %90 = getelementptr inbounds { double, double }, ptr %agg.tmp42, i32 0, i32 0
  %91 = load double, ptr %90, align 8
  %92 = getelementptr inbounds { double, double }, ptr %agg.tmp42, i32 0, i32 1
  %93 = load double, ptr %92, align 8
  %94 = getelementptr inbounds { double, double }, ptr %agg.tmp43, i32 0, i32 0
  %95 = load double, ptr %94, align 8
  %96 = getelementptr inbounds { double, double }, ptr %agg.tmp43, i32 0, i32 1
  %97 = load double, ptr %96, align 8
  %call44 = call noundef double @_ZN7msdfgen12crossProductENS_7Vector2ES0_(double %91, double %93, double %95, double %97)
  store double %call44, ptr %pseudoDistance41, align 8
  %98 = load double, ptr %pseudoDistance41, align 8
  %99 = call double @llvm.fabs.f64(double %98)
  %100 = load ptr, ptr %distance.addr, align 8
  %distance45 = getelementptr inbounds %"class.msdfgen::SignedDistance", ptr %100, i32 0, i32 0
  %101 = load double, ptr %distance45, align 8
  %102 = call double @llvm.fabs.f64(double %101)
  %cmp46 = fcmp ole double %99, %102
  br i1 %cmp46, label %if.then47, label %if.end50

if.then47:                                        ; preds = %if.then40
  %103 = load double, ptr %pseudoDistance41, align 8
  %104 = load ptr, ptr %distance.addr, align 8
  %distance48 = getelementptr inbounds %"class.msdfgen::SignedDistance", ptr %104, i32 0, i32 0
  store double %103, ptr %distance48, align 8
  %105 = load ptr, ptr %distance.addr, align 8
  %dot49 = getelementptr inbounds %"class.msdfgen::SignedDistance", ptr %105, i32 0, i32 1
  store double 0.000000e+00, ptr %dot49, align 8
  br label %if.end50

if.end50:                                         ; preds = %if.then47, %if.then40
  br label %if.end51

if.end51:                                         ; preds = %if.end50, %if.then22
  br label %if.end52

if.end52:                                         ; preds = %if.end51, %if.else
  br label %if.end53

if.end53:                                         ; preds = %if.end52, %if.end20
  ret void
}