; Function Attrs: mustprogress uwtable
define dso_local void @_ZNK7msdfgen11EdgeSegment24distanceToPseudoDistanceERNS_14SignedDistanceENS_7Vector2Ed(ptr noundef nonnull align 8 dereferenceable(12) %this, ptr nocapture noundef nonnull align 8 dereferenceable(16) %distance, double %origin.coerce0, double %origin.coerce1, double noundef %param) unnamed_addr #0 align 2 {
entry:
  %cmp = fcmp olt double %param, 0.000000e+00
  br i1 %cmp, label %if.then, label %if.else

if.then:                                          ; preds = %entry
  %vtable = load ptr, ptr %this, align 8
  %vfn = getelementptr inbounds i8, ptr %vtable, i64 48
  %0 = load ptr, ptr %vfn, align 8
  %call = tail call { double, double } %0(ptr noundef nonnull align 8 dereferenceable(12) %this, double noundef 0.000000e+00)
  %1 = extractvalue { double, double } %call, 0
  %2 = extractvalue { double, double } %call, 1
  %mul4.i.i = fmul double %2, %2
  %3 = tail call double @llvm.fmuladd.f64(double %1, double %1, double %mul4.i.i)
  %sqrt.i.i = tail call noundef double @llvm.sqrt.f64(double %3)
  %tobool.i = fcmp une double %sqrt.i.i, 0.000000e+00
  %div.i = fdiv double %1, %sqrt.i.i
  %div2.i = fdiv double %2, %sqrt.i.i
  %retval.sroa.3.0.i = select i1 %tobool.i, double %div2.i, double 1.000000e+00
  %retval.sroa.0.0.i = select i1 %tobool.i, double %div.i, double 0.000000e+00
  %vtable4 = load ptr, ptr %this, align 8
  %vfn5 = getelementptr inbounds i8, ptr %vtable4, i64 40
  %4 = load ptr, ptr %vfn5, align 8
  %call6 = tail call { double, double } %4(ptr noundef nonnull align 8 dereferenceable(12) %this, double noundef 0.000000e+00)
  %5 = extractvalue { double, double } %call6, 0
  %6 = extractvalue { double, double } %call6, 1
  %sub.i = fsub double %origin.coerce0, %5
  %sub3.i = fsub double %origin.coerce1, %6
  %mul3.i = fmul double %sub3.i, %retval.sroa.3.0.i
  %7 = tail call noundef double @llvm.fmuladd.f64(double %sub.i, double %retval.sroa.0.0.i, double %mul3.i)
  %cmp11 = fcmp olt double %7, 0.000000e+00
  br i1 %cmp11, label %if.then12, label %if.end53

if.then12:                                        ; preds = %if.then
  %8 = fneg double %sub3.i
  %neg.i = fmul double %retval.sroa.0.0.i, %8
  %9 = tail call noundef double @llvm.fmuladd.f64(double %sub.i, double %retval.sroa.3.0.i, double %neg.i)
  %10 = tail call double @llvm.fabs.f64(double %9)
  %11 = load double, ptr %distance, align 8
  %12 = tail call double @llvm.fabs.f64(double %11)
  %cmp17 = fcmp ugt double %10, %12
  br i1 %cmp17, label %if.end53, label %if.end53.sink.split

if.else:                                          ; preds = %entry
  %cmp21 = fcmp ogt double %param, 1.000000e+00
  br i1 %cmp21, label %if.then22, label %if.end53

if.then22:                                        ; preds = %if.else
  %vtable25 = load ptr, ptr %this, align 8
  %vfn26 = getelementptr inbounds i8, ptr %vtable25, i64 48
  %13 = load ptr, ptr %vfn26, align 8
  %call27 = tail call { double, double } %13(ptr noundef nonnull align 8 dereferenceable(12) %this, double noundef 1.000000e+00)
  %14 = extractvalue { double, double } %call27, 0
  %15 = extractvalue { double, double } %call27, 1
  %mul4.i.i12 = fmul double %15, %15
  %16 = tail call double @llvm.fmuladd.f64(double %14, double %14, double %mul4.i.i12)
  %sqrt.i.i13 = tail call noundef double @llvm.sqrt.f64(double %16)
  %tobool.i14 = fcmp une double %sqrt.i.i13, 0.000000e+00
  %div.i15 = fdiv double %14, %sqrt.i.i13
  %div2.i16 = fdiv double %15, %sqrt.i.i13
  %retval.sroa.3.0.i17 = select i1 %tobool.i14, double %div2.i16, double 1.000000e+00
  %retval.sroa.0.0.i18 = select i1 %tobool.i14, double %div.i15, double 0.000000e+00
  %vtable31 = load ptr, ptr %this, align 8
  %vfn32 = getelementptr inbounds i8, ptr %vtable31, i64 40
  %17 = load ptr, ptr %vfn32, align 8
  %call33 = tail call { double, double } %17(ptr noundef nonnull align 8 dereferenceable(12) %this, double noundef 1.000000e+00)
  %18 = extractvalue { double, double } %call33, 0
  %19 = extractvalue { double, double } %call33, 1
  %sub.i21 = fsub double %origin.coerce0, %18
  %sub3.i22 = fsub double %origin.coerce1, %19
  %mul3.i25 = fmul double %sub3.i22, %retval.sroa.3.0.i17
  %20 = tail call noundef double @llvm.fmuladd.f64(double %sub.i21, double %retval.sroa.0.0.i18, double %mul3.i25)
  %cmp39 = fcmp ogt double %20, 0.000000e+00
  br i1 %cmp39, label %if.then40, label %if.end53

if.then40:                                        ; preds = %if.then22
  %21 = fneg double %sub3.i22
  %neg.i26 = fmul double %retval.sroa.0.0.i18, %21
  %22 = tail call noundef double @llvm.fmuladd.f64(double %sub.i21, double %retval.sroa.3.0.i17, double %neg.i26)
  %23 = tail call double @llvm.fabs.f64(double %22)
  %24 = load double, ptr %distance, align 8
  %25 = tail call double @llvm.fabs.f64(double %24)
  %cmp46 = fcmp ugt double %23, %25
  br i1 %cmp46, label %if.end53, label %if.end53.sink.split

if.end53.sink.split:                              ; preds = %if.then40, %if.then12
  %.sink = phi double [ %9, %if.then12 ], [ %22, %if.then40 ]
  store double %.sink, ptr %distance, align 8
  %dot49 = getelementptr inbounds i8, ptr %distance, i64 8
  store double 0.000000e+00, ptr %dot49, align 8
  br label %if.end53

if.end53:                                         ; preds = %if.end53.sink.split, %if.else, %if.then40, %if.then22, %if.then, %if.then12
  ret void
}